target datalayout = "e-m:e-p270:32:32-p271:32:32-p272:64:64-i64:64-i128:128-f80:128-n8:16:32:64-S128"
target triple = "x86_64-pc-linux-gnu"

%"class.std::__cxx11::basic_string" = type { %"struct.std::__cxx11::basic_string<char>::_Alloc_hider", i64, %union.anon }
%"struct.std::__cxx11::basic_string<char>::_Alloc_hider" = type { ptr }
%union.anon = type { i64, [8 x i8] }
%"class.std::deque.54" = type { %"class.std::_Deque_base.55" }
%"class.std::_Deque_base.55" = type { %"struct.std::_Deque_base<std::__cxx11::basic_string<char>, std::allocator<std::__cxx11::basic_string<char>>>::_Deque_impl" }
%"struct.std::_Deque_base<std::__cxx11::basic_string<char>, std::allocator<std::__cxx11::basic_string<char>>>::_Deque_impl" = type { %"struct.std::_Deque_base<std::__cxx11::basic_string<char>, std::allocator<std::__cxx11::basic_string<char>>>::_Deque_impl_data" }
%"struct.std::_Deque_base<std::__cxx11::basic_string<char>, std::allocator<std::__cxx11::basic_string<char>>>::_Deque_impl_data" = type { ptr, i64, %"struct.std::_Deque_iterator.56", %"struct.std::_Deque_iterator.56" }
%"struct.std::_Deque_iterator.56" = type { ptr, ptr, ptr, ptr }
%class.FileLine = type { i16, i16, i32, i32, i32, i32, i32, ptr, ptr }
%class.V3PreLex = type <{ ptr, %"class.std::stack", i32, [4 x i8], ptr, ptr, %"class.std::deque.0", i32, i32, i8, [3 x i8], i32, i32, i8, i8, [2 x i8], %"class.std::__cxx11::basic_string", i32, i32, i32, i8, [3 x i8] }>
%"class.std::stack" = type { %"class.std::deque" }
%"class.std::deque" = type { %"class.std::_Deque_base" }
%"class.std::_Deque_base" = type { %"struct.std::_Deque_base<VPreStream *, std::allocator<VPreStream *>>::_Deque_impl" }
%"struct.std::_Deque_base<VPreStream *, std::allocator<VPreStream *>>::_Deque_impl" = type { %"struct.std::_Deque_base<VPreStream *, std::allocator<VPreStream *>>::_Deque_impl_data" }
%"struct.std::_Deque_base<VPreStream *, std::allocator<VPreStream *>>::_Deque_impl_data" = type { ptr, i64, %"struct.std::_Deque_iterator", %"struct.std::_Deque_iterator" }
%"struct.std::_Deque_iterator" = type { ptr, ptr, ptr, ptr }
%"class.std::deque.0" = type { %"class.std::_Deque_base.1" }
%"class.std::_Deque_base.1" = type { %"struct.std::_Deque_base<FileLine, std::allocator<FileLine>>::_Deque_impl" }
%"struct.std::_Deque_base<FileLine, std::allocator<FileLine>>::_Deque_impl" = type { %"struct.std::_Deque_base<FileLine, std::allocator<FileLine>>::_Deque_impl_data" }
%"struct.std::_Deque_base<FileLine, std::allocator<FileLine>>::_Deque_impl_data" = type { ptr, i64, %"struct.std::_Deque_iterator.5", %"struct.std::_Deque_iterator.5" }
%"struct.std::_Deque_iterator.5" = type { ptr, ptr, ptr, ptr }
%class.VPreStream = type <{ ptr, ptr, %"class.std::deque.54", i32, i32, i8, i8, [6 x i8] }>
%class.VFileContent = type { i32, %"struct.std::atomic.106", %"class.std::deque.54" }
%"struct.std::atomic.106" = type { %"struct.std::__atomic_base.107" }
%"struct.std::__atomic_base.107" = type { i64 }

; Function Attrs: inlinehint mustprogress nounwind uwtable
define linkonce_odr dso_local noundef i64 @_ZSt16__deque_buf_sizem(i64 noundef %0) #15 comdat {
  %2 = alloca i64, align 8
  store i64 %0, ptr %2, align 8, !tbaa !11
  %3 = load i64, ptr %2, align 8, !tbaa !11
  %4 = icmp ult i64 %3, 512
  br i1 %4, label %5, label %8

5:                                                ; preds = %1
  %6 = load i64, ptr %2, align 8, !tbaa !11
  %7 = udiv i64 512, %6
  br label %9

8:                                                ; preds = %1
  br label %9

9:                                                ; preds = %8, %5
  %10 = phi i64 [ %7, %5 ], [ 1, %8 ]
  ret i64 %10
}

; Function Attrs: mustprogress nounwind uwtable
define linkonce_odr dso_local noundef i64 @_ZNSt15_Deque_iteratorIP10VPreStreamRS1_PS1_E14_S_buffer_sizeEv() #4 comdat align 2 {
  %1 = call noundef i64 @_ZSt16__deque_buf_sizem(i64 noundef 8)
  ret i64 %1
}

; Function Attrs: mustprogress nounwind uwtable
define linkonce_odr dso_local noundef i64 @_ZNSt13__atomic_baseImEppEv(ptr noundef nonnull align 8 dereferenceable(8) %0) #4 comdat align 2 {
  %2 = alloca ptr, align 8
  %3 = alloca i64, align 8
  %4 = alloca i64, align 8
  store ptr %0, ptr %2, align 8, !tbaa !967
  %5 = load ptr, ptr %2, align 8
  %6 = getelementptr inbounds nuw %"struct.std::__atomic_base.107", ptr %5, i32 0, i32 0
  store i64 1, ptr %3, align 8, !tbaa !11
  %7 = load i64, ptr %3, align 8
  %8 = atomicrmw add ptr %6, i64 %7 seq_cst, align 8
  %9 = add i64 %8, %7
  store i64 %9, ptr %4, align 8
  %10 = load i64, ptr %4, align 8, !tbaa !11
  ret i64 %10
}

; Function Attrs: mustprogress nounwind uwtable
define linkonce_odr dso_local void @_ZNSt15_Deque_iteratorIP10VPreStreamRS1_PS1_E11_M_set_nodeEPS3_(ptr noundef nonnull align 8 dereferenceable(32) %0, ptr noundef %1) #4 comdat align 2 {
  %3 = alloca ptr, align 8
  %4 = alloca ptr, align 8
  store ptr %0, ptr %3, align 8, !tbaa !568
  store ptr %1, ptr %4, align 8, !tbaa !580
  %5 = load ptr, ptr %3, align 8
  %6 = load ptr, ptr %4, align 8, !tbaa !580
  %7 = getelementptr inbounds nuw %"struct.std::_Deque_iterator", ptr %5, i32 0, i32 3
  store ptr %6, ptr %7, align 8, !tbaa !573
  %8 = load ptr, ptr %4, align 8, !tbaa !580
  %9 = load ptr, ptr %8, align 8, !tbaa !180
  %10 = getelementptr inbounds nuw %"struct.std::_Deque_iterator", ptr %5, i32 0, i32 1
  store ptr %9, ptr %10, align 8, !tbaa !571
  %11 = getelementptr inbounds nuw %"struct.std::_Deque_iterator", ptr %5, i32 0, i32 1
  %12 = load ptr, ptr %11, align 8, !tbaa !571
  %13 = call noundef i64 @_ZNSt15_Deque_iteratorIP10VPreStreamRS1_PS1_E14_S_buffer_sizeEv() #3
  %14 = getelementptr inbounds ptr, ptr %12, i64 %13
  %15 = getelementptr inbounds nuw %"struct.std::_Deque_iterator", ptr %5, i32 0, i32 2
  store ptr %14, ptr %15, align 8, !tbaa !572
  ret void
}

; Function Attrs: mustprogress nounwind uwtable
define linkonce_odr dso_local void @_ZNSt15_Deque_iteratorIP10VPreStreamRS1_PS1_EC2ERKS4_(ptr noundef nonnull align 8 dereferenceable(32) %0, ptr noundef nonnull align 8 dereferenceable(32) %1) unnamed_addr #4 comdat align 2 {
  %3 = alloca ptr, align 8
  %4 = alloca ptr, align 8
  store ptr %0, ptr %3, align 8, !tbaa !568
  store ptr %1, ptr %4, align 8, !tbaa !568
  %5 = load ptr, ptr %3, align 8
  %6 = getelementptr inbounds nuw %"struct.std::_Deque_iterator", ptr %5, i32 0, i32 0
  %7 = load ptr, ptr %4, align 8, !tbaa !568
  %8 = getelementptr inbounds nuw %"struct.std::_Deque_iterator", ptr %7, i32 0, i32 0
  %9 = load ptr, ptr %8, align 8, !tbaa !570
  store ptr %9, ptr %6, align 8, !tbaa !570
  %10 = getelementptr inbounds nuw %"struct.std::_Deque_iterator", ptr %5, i32 0, i32 1
  %11 = load ptr, ptr %4, align 8, !tbaa !568
  %12 = getelementptr inbounds nuw %"struct.std::_Deque_iterator", ptr %11, i32 0, i32 1
  %13 = load ptr, ptr %12, align 8, !tbaa !571
  store ptr %13, ptr %10, align 8, !tbaa !571
  %14 = getelementptr inbounds nuw %"struct.std::_Deque_iterator", ptr %5, i32 0, i32 2
  %15 = load ptr, ptr %4, align 8, !tbaa !568
  %16 = getelementptr inbounds nuw %"struct.std::_Deque_iterator", ptr %15, i32 0, i32 2
  %17 = load ptr, ptr %16, align 8, !tbaa !572
  store ptr %17, ptr %14, align 8, !tbaa !572
  %18 = getelementptr inbounds nuw %"struct.std::_Deque_iterator", ptr %5, i32 0, i32 3
  %19 = load ptr, ptr %4, align 8, !tbaa !568
  %20 = getelementptr inbounds nuw %"struct.std::_Deque_iterator", ptr %19, i32 0, i32 3
  %21 = load ptr, ptr %20, align 8, !tbaa !573
  store ptr %21, ptr %18, align 8, !tbaa !573
  ret void
}

; Function Attrs: mustprogress nounwind uwtable
define linkonce_odr dso_local void @_ZN12VFileContent6refIncEv(ptr noundef nonnull align 8 dereferenceable(96) %0) #4 comdat align 2 {
  %2 = alloca ptr, align 8
  store ptr %0, ptr %2, align 8, !tbaa !966
  %3 = load ptr, ptr %2, align 8
  %4 = getelementptr inbounds nuw %class.VFileContent, ptr %3, i32 0, i32 1
  %5 = call noundef i64 @_ZNSt13__atomic_baseImEppEv(ptr noundef nonnull align 8 dereferenceable(8) %4) #3
  ret void
}

; Function Attrs: mustprogress nounwind uwtable
define linkonce_odr dso_local noundef nonnull align 8 dereferenceable(8) ptr @_ZNKSt15_Deque_iteratorIP10VPreStreamRS1_PS1_EdeEv(ptr noundef nonnull align 8 dereferenceable(32) %0) #4 comdat align 2 {
  %2 = alloca ptr, align 8
  store ptr %0, ptr %2, align 8, !tbaa !568
  %3 = load ptr, ptr %2, align 8
  %4 = getelementptr inbounds nuw %"struct.std::_Deque_iterator", ptr %3, i32 0, i32 0
  %5 = load ptr, ptr %4, align 8, !tbaa !570
  ret ptr %5
}

; Function Attrs: mustprogress nounwind uwtable
define linkonce_odr dso_local noundef nonnull align 8 dereferenceable(32) ptr @_ZNSt15_Deque_iteratorIP10VPreStreamRS1_PS1_EmmEv(ptr noundef nonnull align 8 dereferenceable(32) %0) #4 comdat align 2 {
  %2 = alloca ptr, align 8
  store ptr %0, ptr %2, align 8, !tbaa !568
  %3 = load ptr, ptr %2, align 8
  %4 = getelementptr inbounds nuw %"struct.std::_Deque_iterator", ptr %3, i32 0, i32 0
  %5 = load ptr, ptr %4, align 8, !tbaa !570
  %6 = getelementptr inbounds nuw %"struct.std::_Deque_iterator", ptr %3, i32 0, i32 1
  %7 = load ptr, ptr %6, align 8, !tbaa !571
  %8 = icmp eq ptr %5, %7
  br i1 %8, label %9, label %16

9:                                                ; preds = %1
  %10 = getelementptr inbounds nuw %"struct.std::_Deque_iterator", ptr %3, i32 0, i32 3
  %11 = load ptr, ptr %10, align 8, !tbaa !573
  %12 = getelementptr inbounds ptr, ptr %11, i64 -1
  call void @_ZNSt15_Deque_iteratorIP10VPreStreamRS1_PS1_E11_M_set_nodeEPS3_(ptr noundef nonnull align 8 dereferenceable(32) %3, ptr noundef %12) #3
  %13 = getelementptr inbounds nuw %"struct.std::_Deque_iterator", ptr %3, i32 0, i32 2
  %14 = load ptr, ptr %13, align 8, !tbaa !572
  %15 = getelementptr inbounds nuw %"struct.std::_Deque_iterator", ptr %3, i32 0, i32 0
  store ptr %14, ptr %15, align 8, !tbaa !570
  br label %16

16:                                               ; preds = %9, %1
  %17 = getelementptr inbounds nuw %"struct.std::_Deque_iterator", ptr %3, i32 0, i32 0
  %18 = load ptr, ptr %17, align 8, !tbaa !570
  %19 = getelementptr inbounds ptr, ptr %18, i32 -1
  store ptr %19, ptr %17, align 8, !tbaa !570
  ret ptr %3
}

; Function Attrs: mustprogress nounwind uwtable
define linkonce_odr dso_local void @_ZNSt5dequeIP10VPreStreamSaIS1_EE3endEv(ptr dead_on_unwind noalias writable sret(%"struct.std::_Deque_iterator") align 8 %0, ptr noundef nonnull align 8 dereferenceable(80) %1) #4 comdat align 2 {
  %3 = alloca ptr, align 8
  %4 = alloca ptr, align 8
  store ptr %0, ptr %3, align 8
  store ptr %1, ptr %4, align 8, !tbaa !558
  %5 = load ptr, ptr %4, align 8
  %6 = getelementptr inbounds nuw %"class.std::_Deque_base", ptr %5, i32 0, i32 0
  %7 = getelementptr inbounds nuw %"struct.std::_Deque_base<VPreStream *, std::allocator<VPreStream *>>::_Deque_impl_data", ptr %6, i32 0, i32 3
  call void @_ZNSt15_Deque_iteratorIP10VPreStreamRS1_PS1_EC2ERKS4_(ptr noundef nonnull align 8 dereferenceable(32) %0, ptr noundef nonnull align 8 dereferenceable(32) %7) #3
  ret void
}

; Function Attrs: mustprogress nounwind uwtable
define linkonce_odr dso_local void @_ZN8FileLineC2ERKS_(ptr noundef nonnull align 8 dereferenceable(40) %0, ptr noundef nonnull align 8 dereferenceable(40) %1) unnamed_addr #4 comdat align 2 {
  %3 = alloca ptr, align 8
  %4 = alloca ptr, align 8
  store ptr %0, ptr %3, align 8, !tbaa !91
  store ptr %1, ptr %4, align 8, !tbaa !91
  %5 = load ptr, ptr %3, align 8
  %6 = getelementptr inbounds nuw %class.FileLine, ptr %5, i32 0, i32 0
  %7 = load ptr, ptr %4, align 8, !tbaa !91
  %8 = getelementptr inbounds nuw %class.FileLine, ptr %7, i32 0, i32 0
  %9 = load i16, ptr %8, align 8, !tbaa !190
  store i16 %9, ptr %6, align 8, !tbaa !190
  %10 = getelementptr inbounds nuw %class.FileLine, ptr %5, i32 0, i32 1
  %11 = load ptr, ptr %4, align 8, !tbaa !91
  %12 = getelementptr inbounds nuw %class.FileLine, ptr %11, i32 0, i32 1
  %13 = load i16, ptr %12, align 2, !tbaa !322
  store i16 %13, ptr %10, align 2, !tbaa !322
  %14 = getelementptr inbounds nuw %class.FileLine, ptr %5, i32 0, i32 2
  %15 = load ptr, ptr %4, align 8, !tbaa !91
  %16 = getelementptr inbounds nuw %class.FileLine, ptr %15, i32 0, i32 2
  %17 = load i32, ptr %16, align 4
  %18 = and i32 %17, 1
  %19 = trunc i32 %18 to i1
  %20 = zext i1 %19 to i32
  %21 = load i32, ptr %14, align 4
  %22 = and i32 %21, -2
  %23 = or i32 %22, %20
  store i32 %23, ptr %14, align 4
  %24 = getelementptr inbounds nuw %class.FileLine, ptr %5, i32 0, i32 2
  %25 = load ptr, ptr %4, align 8, !tbaa !91
  %26 = getelementptr inbounds nuw %class.FileLine, ptr %25, i32 0, i32 2
  %27 = load i32, ptr %26, align 4
  %28 = lshr i32 %27, 1
  %29 = load i32, ptr %24, align 4
  %30 = and i32 %28, 2147483647
  %31 = shl i32 %30, 1
  %32 = and i32 %29, 1
  %33 = or i32 %32, %31
  store i32 %33, ptr %24, align 4
  %34 = getelementptr inbounds nuw %class.FileLine, ptr %5, i32 0, i32 3
  %35 = load ptr, ptr %4, align 8, !tbaa !91
  %36 = getelementptr inbounds nuw %class.FileLine, ptr %35, i32 0, i32 3
  %37 = load i32, ptr %36, align 8, !tbaa !96
  store i32 %37, ptr %34, align 8, !tbaa !96
  %38 = getelementptr inbounds nuw %class.FileLine, ptr %5, i32 0, i32 4
  %39 = load ptr, ptr %4, align 8, !tbaa !91
  %40 = getelementptr inbounds nuw %class.FileLine, ptr %39, i32 0, i32 4
  %41 = load i32, ptr %40, align 4, !tbaa !98
  store i32 %41, ptr %38, align 4, !tbaa !98
  %42 = getelementptr inbounds nuw %class.FileLine, ptr %5, i32 0, i32 5
  %43 = load ptr, ptr %4, align 8, !tbaa !91
  %44 = getelementptr inbounds nuw %class.FileLine, ptr %43, i32 0, i32 5
  %45 = load i32, ptr %44, align 8, !tbaa !92
  store i32 %45, ptr %42, align 8, !tbaa !92
  %46 = getelementptr inbounds nuw %class.FileLine, ptr %5, i32 0, i32 6
  %47 = load ptr, ptr %4, align 8, !tbaa !91
  %48 = getelementptr inbounds nuw %class.FileLine, ptr %47, i32 0, i32 6
  %49 = load i32, ptr %48, align 4, !tbaa !97
  store i32 %49, ptr %46, align 4, !tbaa !97
  %50 = getelementptr inbounds nuw %class.FileLine, ptr %5, i32 0, i32 7
  %51 = load ptr, ptr %4, align 8, !tbaa !91
  %52 = getelementptr inbounds nuw %class.FileLine, ptr %51, i32 0, i32 7
  %53 = load ptr, ptr %52, align 8, !tbaa !323
  store ptr %53, ptr %50, align 8, !tbaa !323
  %54 = getelementptr inbounds nuw %class.FileLine, ptr %5, i32 0, i32 8
  %55 = load ptr, ptr %4, align 8, !tbaa !91
  %56 = getelementptr inbounds nuw %class.FileLine, ptr %55, i32 0, i32 8
  %57 = load ptr, ptr %56, align 8, !tbaa !324
  store ptr %57, ptr %54, align 8, !tbaa !324
  %58 = getelementptr inbounds nuw %class.FileLine, ptr %5, i32 0, i32 7
  %59 = load ptr, ptr %58, align 8, !tbaa !323
  %60 = icmp ne ptr %59, null
  br i1 %60, label %61, label %64

61:                                               ; preds = %2
  %62 = getelementptr inbounds nuw %class.FileLine, ptr %5, i32 0, i32 7
  %63 = load ptr, ptr %62, align 8, !tbaa !323
  call void @_ZN12VFileContent6refIncEv(ptr noundef nonnull align 8 dereferenceable(96) %63)
  br label %64

64:                                               ; preds = %61, %2
  ret void
}

; Function Attrs: mustprogress nounwind uwtable
define linkonce_odr dso_local noundef nonnull align 8 dereferenceable(8) ptr @_ZNSt5dequeIP10VPreStreamSaIS1_EE4backEv(ptr noundef nonnull align 8 dereferenceable(80) %0) #4 comdat align 2 {
  %2 = alloca ptr, align 8
  %3 = alloca %"struct.std::_Deque_iterator", align 8
  store ptr %0, ptr %2, align 8, !tbaa !558
  %4 = load ptr, ptr %2, align 8
  call void @llvm.lifetime.start.p0(i64 32, ptr %3) #3
  call void @_ZNSt5dequeIP10VPreStreamSaIS1_EE3endEv(ptr dead_on_unwind writable sret(%"struct.std::_Deque_iterator") align 8 %3, ptr noundef nonnull align 8 dereferenceable(80) %4) #3
  %5 = call noundef nonnull align 8 dereferenceable(32) ptr @_ZNSt15_Deque_iteratorIP10VPreStreamRS1_PS1_EmmEv(ptr noundef nonnull align 8 dereferenceable(32) %3) #3
  %6 = call noundef nonnull align 8 dereferenceable(8) ptr @_ZNKSt15_Deque_iteratorIP10VPreStreamRS1_PS1_EdeEv(ptr noundef nonnull align 8 dereferenceable(32) %3) #3
  call void @llvm.lifetime.end.p0(i64 32, ptr %3) #3
  ret ptr %6
}

; Function Attrs: mustprogress uwtable
define linkonce_odr dso_local void @_ZNSt15__new_allocatorI8FileLineE9constructIS0_JRKS0_EEEvPT_DpOT0_(ptr noundef nonnull align 1 dereferenceable(1) %0, ptr noundef %1, ptr noundef nonnull align 8 dereferenceable(40) %2) #5 comdat align 2 {
  %4 = alloca ptr, align 8
  %5 = alloca ptr, align 8
  %6 = alloca ptr, align 8
  store ptr %0, ptr %4, align 8, !tbaa !799
  store ptr %1, ptr %5, align 8, !tbaa !91
  store ptr %2, ptr %6, align 8, !tbaa !91
  %7 = load ptr, ptr %5, align 8, !tbaa !91
  %8 = load ptr, ptr %6, align 8, !tbaa !91
  call void @_ZN8FileLineC2ERKS_(ptr noundef nonnull align 8 dereferenceable(40) %7, ptr noundef nonnull align 8 dereferenceable(40) %8)
  ret void
}

; Function Attrs: mustprogress nounwind uwtable
define linkonce_odr dso_local noundef nonnull align 8 dereferenceable(8) ptr @_ZNSt5stackIP10VPreStreamSt5dequeIS1_SaIS1_EEE3topEv(ptr noundef nonnull align 8 dereferenceable(80) %0) #4 comdat align 2 {
  %2 = alloca ptr, align 8
  store ptr %0, ptr %2, align 8, !tbaa !175
  %3 = load ptr, ptr %2, align 8
  %4 = getelementptr inbounds nuw %"class.std::stack", ptr %3, i32 0, i32 0
  %5 = call noundef nonnull align 8 dereferenceable(8) ptr @_ZNSt5dequeIP10VPreStreamSaIS1_EE4backEv(ptr noundef nonnull align 8 dereferenceable(80) %4) #3
  ret ptr %5
}

; Function Attrs: mustprogress uwtable
define linkonce_odr dso_local void @_ZNSt16allocator_traitsISaI8FileLineEE9constructIS0_JRKS0_EEEvRS1_PT_DpOT0_(ptr noundef nonnull align 1 dereferenceable(1) %0, ptr noundef %1, ptr noundef nonnull align 8 dereferenceable(40) %2) #5 comdat align 2 {
  %4 = alloca ptr, align 8
  %5 = alloca ptr, align 8
  %6 = alloca ptr, align 8
  store ptr %0, ptr %4, align 8, !tbaa !801
  store ptr %1, ptr %5, align 8, !tbaa !91
  store ptr %2, ptr %6, align 8, !tbaa !91
  %7 = load ptr, ptr %4, align 8, !tbaa !801
  %8 = load ptr, ptr %5, align 8, !tbaa !91
  %9 = load ptr, ptr %6, align 8, !tbaa !91
  call void @_ZNSt15__new_allocatorI8FileLineE9constructIS0_JRKS0_EEEvPT_DpOT0_(ptr noundef nonnull align 1 dereferenceable(1) %7, ptr noundef %8, ptr noundef nonnull align 8 dereferenceable(40) %9)
  ret void
}

; Function Attrs: mustprogress uwtable
define linkonce_odr dso_local noundef ptr @_ZN8V3PreLex10curStreampEv(ptr noundef nonnull align 8 dereferenceable(264) %0) #5 comdat align 2 {
  %2 = alloca ptr, align 8
  store ptr %0, ptr %2, align 8, !tbaa !26
  %3 = load ptr, ptr %2, align 8
  %4 = getelementptr inbounds nuw %class.V3PreLex, ptr %3, i32 0, i32 1
  %5 = call noundef nonnull align 8 dereferenceable(8) ptr @_ZNSt5stackIP10VPreStreamSt5dequeIS1_SaIS1_EEE3topEv(ptr noundef nonnull align 8 dereferenceable(80) %4)
  %6 = load ptr, ptr %5, align 8, !tbaa !161
  ret ptr %6
}

; Function Attrs: mustprogress uwtable
define linkonce_odr dso_local void @_ZNSt5dequeI8FileLineSaIS0_EE9push_backERKS0_(ptr noundef nonnull align 8 dereferenceable(80) %0, ptr noundef nonnull align 8 dereferenceable(40) %1) #5 comdat align 2 {
  %3 = alloca ptr, align 8
  %4 = alloca ptr, align 8
  store ptr %0, ptr %3, align 8, !tbaa !186
  store ptr %1, ptr %4, align 8, !tbaa !91
  %5 = load ptr, ptr %3, align 8
  %6 = getelementptr inbounds nuw %"class.std::_Deque_base.1", ptr %5, i32 0, i32 0
  %7 = getelementptr inbounds nuw %"struct.std::_Deque_base<FileLine, std::allocator<FileLine>>::_Deque_impl_data", ptr %6, i32 0, i32 3
  %8 = getelementptr inbounds nuw %"struct.std::_Deque_iterator.5", ptr %7, i32 0, i32 0
  %9 = load ptr, ptr %8, align 8, !tbaa !188
  %10 = getelementptr inbounds nuw %"class.std::_Deque_base.1", ptr %5, i32 0, i32 0
  %11 = getelementptr inbounds nuw %"struct.std::_Deque_base<FileLine, std::allocator<FileLine>>::_Deque_impl_data", ptr %10, i32 0, i32 3
  %12 = getelementptr inbounds nuw %"struct.std::_Deque_iterator.5", ptr %11, i32 0, i32 2
  %13 = load ptr, ptr %12, align 8, !tbaa !189
  %14 = getelementptr inbounds %class.FileLine, ptr %13, i64 -1
  %15 = icmp ne ptr %9, %14
  br i1 %15, label %16, label %28

16:                                               ; preds = %2
  %17 = getelementptr inbounds nuw %"class.std::_Deque_base.1", ptr %5, i32 0, i32 0
  %18 = getelementptr inbounds nuw %"class.std::_Deque_base.1", ptr %5, i32 0, i32 0
  %19 = getelementptr inbounds nuw %"struct.std::_Deque_base<FileLine, std::allocator<FileLine>>::_Deque_impl_data", ptr %18, i32 0, i32 3
  %20 = getelementptr inbounds nuw %"struct.std::_Deque_iterator.5", ptr %19, i32 0, i32 0
  %21 = load ptr, ptr %20, align 8, !tbaa !188
  %22 = load ptr, ptr %4, align 8, !tbaa !91
  call void @_ZNSt16allocator_traitsISaI8FileLineEE9constructIS0_JRKS0_EEEvRS1_PT_DpOT0_(ptr noundef nonnull align 1 dereferenceable(1) %17, ptr noundef %21, ptr noundef nonnull align 8 dereferenceable(40) %22)
  %23 = getelementptr inbounds nuw %"class.std::_Deque_base.1", ptr %5, i32 0, i32 0
  %24 = getelementptr inbounds nuw %"struct.std::_Deque_base<FileLine, std::allocator<FileLine>>::_Deque_impl_data", ptr %23, i32 0, i32 3
  %25 = getelementptr inbounds nuw %"struct.std::_Deque_iterator.5", ptr %24, i32 0, i32 0
  %26 = load ptr, ptr %25, align 8, !tbaa !188
  %27 = getelementptr inbounds nuw %class.FileLine, ptr %26, i32 1
  store ptr %27, ptr %25, align 8, !tbaa !188
  br label %30

28:                                               ; preds = %2
  %29 = load ptr, ptr %4, align 8, !tbaa !91
  call void @_ZNSt5dequeI8FileLineSaIS0_EE16_M_push_back_auxIJRKS0_EEEvDpOT_(ptr noundef nonnull align 8 dereferenceable(80) %5, ptr noundef nonnull align 8 dereferenceable(40) %29)
  br label %30

30:                                               ; preds = %28, %16
  ret void
}

; Function Attrs: mustprogress uwtable
define linkonce_odr dso_local noundef ptr @_ZN8V3PreLex12curFilelinepEv(ptr noundef nonnull align 8 dereferenceable(264) %0) #5 comdat align 2 {
  %2 = alloca ptr, align 8
  store ptr %0, ptr %2, align 8, !tbaa !26
  %3 = load ptr, ptr %2, align 8
  %4 = call noundef ptr @_ZN8V3PreLex10curStreampEv(ptr noundef nonnull align 8 dereferenceable(264) %3)
  %5 = getelementptr inbounds nuw %class.VPreStream, ptr %4, i32 0, i32 0
  %6 = load ptr, ptr %5, align 8, !tbaa !68
  ret ptr %6
}

; Function Attrs: mustprogress uwtable
define dso_local void @_ZN8V3PreLex20verilatorCmtLintSaveEv(ptr noundef nonnull align 8 dereferenceable(264) %0) #5 align 2 {
  %2 = alloca ptr, align 8
  store ptr %0, ptr %2, align 8, !tbaa !26
  %3 = load ptr, ptr %2, align 8
  %4 = getelementptr inbounds nuw %class.V3PreLex, ptr %3, i32 0, i32 6
  %5 = call noundef ptr @_ZN8V3PreLex12curFilelinepEv(ptr noundef nonnull align 8 dereferenceable(264) %3)
  call void @_ZNSt5dequeI8FileLineSaIS0_EE9push_backERKS0_(ptr noundef nonnull align 8 dereferenceable(80) %4, ptr noundef nonnull align 8 dereferenceable(40) %5)
  ret void
}