; Function Attrs: mustprogress uwtable
define dso_local void @_ZN8V3PreLex20verilatorCmtLintSaveEv(ptr noundef nonnull align 8 dereferenceable(264) %0) local_unnamed_addr #5 align 2 {
  %2 = getelementptr inbounds nuw i8, ptr %0, i64 112
  %3 = getelementptr inbounds nuw i8, ptr %0, i64 56
  %4 = load ptr, ptr %3, align 8, !tbaa !34, !noalias !746
  %5 = getelementptr inbounds nuw i8, ptr %0, i64 64
  %6 = load ptr, ptr %5, align 8, !tbaa !42, !noalias !746
  %7 = icmp eq ptr %4, %6
  br i1 %7, label %8, label %_ZN8V3PreLex12curFilelinepEv.exit

8:                                                ; preds = %1
  %9 = getelementptr inbounds nuw i8, ptr %0, i64 80
  %10 = load ptr, ptr %9, align 8, !tbaa !43, !noalias !746
  %11 = getelementptr inbounds i8, ptr %10, i64 -8
  %12 = load ptr, ptr %11, align 8, !tbaa !44
  %13 = getelementptr inbounds nuw i8, ptr %12, i64 512
  br label %_ZN8V3PreLex12curFilelinepEv.exit

_ZN8V3PreLex12curFilelinepEv.exit:                ; preds = %1, %8
  %14 = phi ptr [ %13, %8 ], [ %4, %1 ]
  %15 = getelementptr inbounds i8, ptr %14, i64 -8
  %16 = load ptr, ptr %15, align 8, !tbaa !45
  %17 = load ptr, ptr %16, align 8, !tbaa !47
  %18 = getelementptr inbounds nuw i8, ptr %0, i64 160
  %19 = load ptr, ptr %18, align 8, !tbaa !745
  %20 = getelementptr inbounds nuw i8, ptr %0, i64 176
  %21 = load ptr, ptr %20, align 8, !tbaa !749
  %22 = getelementptr inbounds i8, ptr %21, i64 -40
  %.not.i = icmp eq ptr %19, %22
  br i1 %.not.i, label %61, label %23

23:                                               ; preds = %_ZN8V3PreLex12curFilelinepEv.exit
  %24 = load i16, ptr %17, align 8, !tbaa !740
  store i16 %24, ptr %19, align 8, !tbaa !740
  %25 = getelementptr inbounds nuw i8, ptr %19, i64 2
  %26 = getelementptr inbounds nuw i8, ptr %17, i64 2
  %27 = load i16, ptr %26, align 2, !tbaa !692
  store i16 %27, ptr %25, align 2, !tbaa !692
  %28 = getelementptr inbounds nuw i8, ptr %19, i64 4
  %29 = getelementptr inbounds nuw i8, ptr %17, i64 4
  %30 = load i32, ptr %29, align 4
  %31 = and i32 %30, 1
  %32 = load i32, ptr %28, align 4
  %33 = and i32 %32, -2
  %34 = or disjoint i32 %33, %31
  store i32 %34, ptr %28, align 4
  %35 = load i32, ptr %29, align 4
  %36 = and i32 %35, -2
  %37 = or disjoint i32 %36, %31
  store i32 %37, ptr %28, align 4
  %38 = getelementptr inbounds nuw i8, ptr %19, i64 8
  %39 = getelementptr inbounds nuw i8, ptr %17, i64 8
  %40 = load i32, ptr %39, align 8, !tbaa !167
  store i32 %40, ptr %38, align 8, !tbaa !167
  %41 = getelementptr inbounds nuw i8, ptr %19, i64 12
  %42 = getelementptr inbounds nuw i8, ptr %17, i64 12
  %43 = load i32, ptr %42, align 4, !tbaa !169
  store i32 %43, ptr %41, align 4, !tbaa !169
  %44 = getelementptr inbounds nuw i8, ptr %19, i64 16
  %45 = getelementptr inbounds nuw i8, ptr %17, i64 16
  %46 = load i32, ptr %45, align 8, !tbaa !163
  store i32 %46, ptr %44, align 8, !tbaa !163
  %47 = getelementptr inbounds nuw i8, ptr %19, i64 20
  %48 = getelementptr inbounds nuw i8, ptr %17, i64 20
  %49 = load i32, ptr %48, align 4, !tbaa !168
  store i32 %49, ptr %47, align 4, !tbaa !168
  %50 = getelementptr inbounds nuw i8, ptr %19, i64 24
  %51 = getelementptr inbounds nuw i8, ptr %17, i64 24
  %52 = load ptr, ptr %51, align 8, !tbaa !750
  store ptr %52, ptr %50, align 8, !tbaa !750
  %53 = getelementptr inbounds nuw i8, ptr %19, i64 32
  %54 = getelementptr inbounds nuw i8, ptr %17, i64 32
  %55 = load ptr, ptr %54, align 8, !tbaa !751
  store ptr %55, ptr %53, align 8, !tbaa !751
  %.not.i.i.i.i = icmp eq ptr %52, null
  br i1 %.not.i.i.i.i, label %_ZNSt16allocator_traitsISaI8FileLineEE9constructIS0_JRKS0_EEEvRS1_PT_DpOT0_.exit.i, label %56

56:                                               ; preds = %23
  %57 = getelementptr inbounds nuw i8, ptr %52, i64 8
  %58 = atomicrmw add ptr %57, i64 1 seq_cst, align 8
  br label %_ZNSt16allocator_traitsISaI8FileLineEE9constructIS0_JRKS0_EEEvRS1_PT_DpOT0_.exit.i

_ZNSt16allocator_traitsISaI8FileLineEE9constructIS0_JRKS0_EEEvRS1_PT_DpOT0_.exit.i: ; preds = %56, %23
  %59 = load ptr, ptr %18, align 8, !tbaa !745
  %60 = getelementptr inbounds nuw i8, ptr %59, i64 40
  store ptr %60, ptr %18, align 8, !tbaa !745
  br label %_ZNSt5dequeI8FileLineSaIS0_EE9push_backERKS0_.exit

61:                                               ; preds = %_ZN8V3PreLex12curFilelinepEv.exit
  tail call void @_ZNSt5dequeI8FileLineSaIS0_EE16_M_push_back_auxIJRKS0_EEEvDpOT_(ptr noundef nonnull align 8 dereferenceable(80) %2, ptr noundef nonnull align 8 dereferenceable(40) %17)
  br label %_ZNSt5dequeI8FileLineSaIS0_EE9push_backERKS0_.exit

_ZNSt5dequeI8FileLineSaIS0_EE9push_backERKS0_.exit: ; preds = %_ZNSt16allocator_traitsISaI8FileLineEE9constructIS0_JRKS0_EEEvRS1_PT_DpOT0_.exit.i, %61
  ret void
}